target datalayout = "e-m:e-p270:32:32-p271:32:32-p272:64:64-i64:64-i128:128-f80:128-n8:16:32:64-S128"
target triple = "x86_64-pc-linux-gnu"

%struct.Abc_Frame_t_ = type { ptr, ptr, ptr, ptr, ptr, ptr, ptr, ptr, ptr, ptr, i32, i32, i32, i32, i32, ptr, float, float, i32, i32, ptr, ptr, ptr, double, double, ptr, ptr, ptr, ptr, ptr, ptr, ptr, ptr, ptr, ptr, ptr, ptr, float, ptr, i32, ptr, ptr, ptr, ptr, ptr, i32, i32, i32, i32, i32, i32, ptr, ptr, ptr, ptr, ptr, ptr, i32, i32, ptr, ptr, ptr, ptr, ptr, ptr, ptr, ptr, ptr, ptr, ptr, ptr, ptr, ptr, ptr, ptr, ptr, ptr, ptr, ptr, ptr, ptr, ptr, ptr, ptr, ptr, ptr, ptr, ptr, ptr }

@.str.31 = private unnamed_addr constant [4 x i8] c"yes\00", align 1
@.str.32 = private unnamed_addr constant [3 x i8] c"no\00", align 1
@.str.34 = private unnamed_addr constant [62 x i8] c"\09-v     : toggle printing verbose information [default = %s]\0A\00", align 1
@.str.35 = private unnamed_addr constant [35 x i8] c"\09-h     : print the command usage\0A\00", align 1
@.str.71 = private unnamed_addr constant [4 x i8] c"mvh\00", align 1
@.str.72 = private unnamed_addr constant [47 x i8] c"Bac_CommandGet(): There is no current design.\0A\00", align 1
@.str.73 = private unnamed_addr constant [54 x i8] c"Bac_CommandGet(): There is no current mapped design.\0A\00", align 1
@.str.74 = private unnamed_addr constant [44 x i8] c"Bac_CommandGet(): There is no current AIG.\0A\00", align 1
@.str.75 = private unnamed_addr constant [21 x i8] c"usage: @_get [-mvh]\0A\00", align 1
@.str.76 = private unnamed_addr constant [70 x i8] c"\09         inserts AIG or mapped network into the hierarchical design\0A\00", align 1
@.str.77 = private unnamed_addr constant [70 x i8] c"\09-m     : toggle using mapped network from main-space [default = %s]\0A\00", align 1

; Function Attrs: inlinehint nounwind uwtable
define internal void @Bac_AbcFreeMan(ptr noundef %0) #3 {
  %2 = alloca ptr, align 8
  store ptr %0, ptr %2, align 8, !tbaa !10
  %3 = load ptr, ptr %2, align 8, !tbaa !10
  %4 = getelementptr inbounds nuw %struct.Abc_Frame_t_, ptr %3, i32 0, i32 74
  %5 = load ptr, ptr %4, align 8, !tbaa !12
  %6 = icmp ne ptr %5, null
  br i1 %6, label %7, label %10

7:                                                ; preds = %1
  %8 = load ptr, ptr %2, align 8, !tbaa !10
  %9 = call ptr @Bac_AbcGetMan(ptr noundef %8)
  call void @Bac_ManFree(ptr noundef %9)
  br label %10

10:                                               ; preds = %7, %1
  ret void
}

; Function Attrs: inlinehint nounwind uwtable
define internal void @Bac_AbcUpdateMan(ptr noundef %0, ptr noundef %1) #3 {
  %3 = alloca ptr, align 8
  %4 = alloca ptr, align 8
  store ptr %0, ptr %3, align 8, !tbaa !10
  store ptr %1, ptr %4, align 8, !tbaa !8
  %5 = load ptr, ptr %3, align 8, !tbaa !10
  call void @Bac_AbcFreeMan(ptr noundef %5)
  %6 = load ptr, ptr %4, align 8, !tbaa !8
  %7 = load ptr, ptr %3, align 8, !tbaa !10
  %8 = getelementptr inbounds nuw %struct.Abc_Frame_t_, ptr %7, i32 0, i32 74
  store ptr %6, ptr %8, align 8, !tbaa !12
  ret void
}

; Function Attrs: inlinehint nounwind uwtable
define internal ptr @Bac_AbcGetMan(ptr noundef %0) #3 {
  %2 = alloca ptr, align 8
  store ptr %0, ptr %2, align 8, !tbaa !10
  %3 = load ptr, ptr %2, align 8, !tbaa !10
  %4 = getelementptr inbounds nuw %struct.Abc_Frame_t_, ptr %3, i32 0, i32 74
  %5 = load ptr, ptr %4, align 8, !tbaa !12
  ret ptr %5
}

; Function Attrs: nounwind uwtable
define internal i32 @Bac_CommandGet(ptr noundef %0, i32 noundef %1, ptr noundef %2) #0 {
  %4 = alloca i32, align 4
  %5 = alloca ptr, align 8
  %6 = alloca i32, align 4
  %7 = alloca ptr, align 8
  %8 = alloca ptr, align 8
  %9 = alloca ptr, align 8
  %10 = alloca i32, align 4
  %11 = alloca i32, align 4
  %12 = alloca i32, align 4
  %13 = alloca i32, align 4
  store ptr %0, ptr %5, align 8, !tbaa !10
  store i32 %1, ptr %6, align 4, !tbaa !28
  store ptr %2, ptr %7, align 8, !tbaa !29
  call void @llvm.lifetime.start.p0(i64 8, ptr %8) #10
  store ptr null, ptr %8, align 8, !tbaa !8
  call void @llvm.lifetime.start.p0(i64 8, ptr %9) #10
  %14 = load ptr, ptr %5, align 8, !tbaa !10
  %15 = call ptr @Bac_AbcGetMan(ptr noundef %14)
  store ptr %15, ptr %9, align 8, !tbaa !8
  call void @llvm.lifetime.start.p0(i64 4, ptr %10) #10
  call void @llvm.lifetime.start.p0(i64 4, ptr %11) #10
  store i32 0, ptr %11, align 4, !tbaa !28
  call void @llvm.lifetime.start.p0(i64 4, ptr %12) #10
  store i32 0, ptr %12, align 4, !tbaa !28
  call void (...) @Extra_UtilGetoptReset()
  br label %16

16:                                               ; preds = %31, %3
  %17 = load i32, ptr %6, align 4, !tbaa !28
  %18 = load ptr, ptr %7, align 8, !tbaa !29
  %19 = call i32 @Extra_UtilGetopt(i32 noundef %17, ptr noundef %18, ptr noundef @.str.71)
  store i32 %19, ptr %10, align 4, !tbaa !28
  %20 = icmp ne i32 %19, -1
  br i1 %20, label %21, label %32

21:                                               ; preds = %16
  %22 = load i32, ptr %10, align 4, !tbaa !28
  switch i32 %22, label %30 [
    i32 109, label %23
    i32 118, label %26
    i32 104, label %29
  ]

23:                                               ; preds = %21
  %24 = load i32, ptr %11, align 4, !tbaa !28
  %25 = xor i32 %24, 1
  store i32 %25, ptr %11, align 4, !tbaa !28
  br label %31

26:                                               ; preds = %21
  %27 = load i32, ptr %12, align 4, !tbaa !28
  %28 = xor i32 %27, 1
  store i32 %28, ptr %12, align 4, !tbaa !28
  br label %31

29:                                               ; preds = %21
  br label %66

30:                                               ; preds = %21
  br label %66

31:                                               ; preds = %26, %23
  br label %16, !llvm.loop !53

32:                                               ; preds = %16
  %33 = load ptr, ptr %9, align 8, !tbaa !8
  %34 = icmp eq ptr %33, null
  br i1 %34, label %35, label %36

35:                                               ; preds = %32
  call void (i32, ptr, ...) @Abc_Print(i32 noundef 1, ptr noundef @.str.72)
  store i32 0, ptr %4, align 4
  store i32 1, ptr %13, align 4
  br label %73

36:                                               ; preds = %32
  %37 = load i32, ptr %11, align 4, !tbaa !28
  %38 = icmp ne i32 %37, 0
  br i1 %38, label %39, label %51

39:                                               ; preds = %36
  %40 = load ptr, ptr %5, align 8, !tbaa !10
  %41 = getelementptr inbounds nuw %struct.Abc_Frame_t_, ptr %40, i32 0, i32 6
  %42 = load ptr, ptr %41, align 8, !tbaa !54
  %43 = icmp eq ptr %42, null
  br i1 %43, label %44, label %45

44:                                               ; preds = %39
  call void (i32, ptr, ...) @Abc_Print(i32 noundef 1, ptr noundef @.str.73)
  store i32 0, ptr %4, align 4
  store i32 1, ptr %13, align 4
  br label %73

45:                                               ; preds = %39
  %46 = load ptr, ptr %9, align 8, !tbaa !8
  %47 = load ptr, ptr %5, align 8, !tbaa !10
  %48 = getelementptr inbounds nuw %struct.Abc_Frame_t_, ptr %47, i32 0, i32 6
  %49 = load ptr, ptr %48, align 8, !tbaa !54
  %50 = call ptr @Bac_ManInsertAbc(ptr noundef %46, ptr noundef %49)
  store ptr %50, ptr %8, align 8, !tbaa !8
  br label %63

51:                                               ; preds = %36
  %52 = load ptr, ptr %5, align 8, !tbaa !10
  %53 = getelementptr inbounds nuw %struct.Abc_Frame_t_, ptr %52, i32 0, i32 40
  %54 = load ptr, ptr %53, align 8, !tbaa !55
  %55 = icmp eq ptr %54, null
  br i1 %55, label %56, label %57

56:                                               ; preds = %51
  call void (i32, ptr, ...) @Abc_Print(i32 noundef 1, ptr noundef @.str.74)
  store i32 0, ptr %4, align 4
  store i32 1, ptr %13, align 4
  br label %73

57:                                               ; preds = %51
  %58 = load ptr, ptr %9, align 8, !tbaa !8
  %59 = load ptr, ptr %5, align 8, !tbaa !10
  %60 = getelementptr inbounds nuw %struct.Abc_Frame_t_, ptr %59, i32 0, i32 40
  %61 = load ptr, ptr %60, align 8, !tbaa !55
  %62 = call ptr @Bac_ManInsertGia(ptr noundef %58, ptr noundef %61)
  store ptr %62, ptr %8, align 8, !tbaa !8
  br label %63

63:                                               ; preds = %57, %45
  %64 = load ptr, ptr %5, align 8, !tbaa !10
  %65 = load ptr, ptr %8, align 8, !tbaa !8
  call void @Bac_AbcUpdateMan(ptr noundef %64, ptr noundef %65)
  store i32 0, ptr %4, align 4
  store i32 1, ptr %13, align 4
  br label %73

66:                                               ; preds = %30, %29
  call void (i32, ptr, ...) @Abc_Print(i32 noundef -2, ptr noundef @.str.75)
  call void (i32, ptr, ...) @Abc_Print(i32 noundef -2, ptr noundef @.str.76)
  %67 = load i32, ptr %11, align 4, !tbaa !28
  %68 = icmp ne i32 %67, 0
  %69 = select i1 %68, ptr @.str.31, ptr @.str.32
  call void (i32, ptr, ...) @Abc_Print(i32 noundef -2, ptr noundef @.str.77, ptr noundef %69)
  %70 = load i32, ptr %12, align 4, !tbaa !28
  %71 = icmp ne i32 %70, 0
  %72 = select i1 %71, ptr @.str.31, ptr @.str.32
  call void (i32, ptr, ...) @Abc_Print(i32 noundef -2, ptr noundef @.str.34, ptr noundef %72)
  call void (i32, ptr, ...) @Abc_Print(i32 noundef -2, ptr noundef @.str.35)
  store i32 1, ptr %4, align 4
  store i32 1, ptr %13, align 4
  br label %73

73:                                               ; preds = %66, %63, %56, %44, %35
  call void @llvm.lifetime.end.p0(i64 4, ptr %12) #10
  call void @llvm.lifetime.end.p0(i64 4, ptr %11) #10
  call void @llvm.lifetime.end.p0(i64 4, ptr %10) #10
  call void @llvm.lifetime.end.p0(i64 8, ptr %9) #10
  call void @llvm.lifetime.end.p0(i64 8, ptr %8) #10
  %74 = load i32, ptr %4, align 4
  ret i32 %74
}